target datalayout = "e-m:e-p270:32:32-p271:32:32-p272:64:64-i64:64-i128:128-f80:128-n8:16:32:64-S128"
target triple = "x86_64-pc-linux-gnu"

%struct.H5G_name_t = type { ptr, ptr, i32 }

; Function Attrs: nounwind uwtable
define i32 @H5G__name_init(ptr noundef %0, ptr noundef %1) #0 {
  %3 = alloca ptr, align 8
  %4 = alloca ptr, align 8
  store ptr %0, ptr %3, align 8
  store ptr %1, ptr %4, align 8
  %5 = load ptr, ptr %4, align 8
  %6 = call ptr @H5RS_create(ptr noundef %5)
  %7 = load ptr, ptr %3, align 8
  %8 = getelementptr inbounds %struct.H5G_name_t, ptr %7, i32 0, i32 0
  store ptr %6, ptr %8, align 8
  %9 = load ptr, ptr %4, align 8
  %10 = call ptr @H5RS_create(ptr noundef %9)
  %11 = load ptr, ptr %3, align 8
  %12 = getelementptr inbounds %struct.H5G_name_t, ptr %11, i32 0, i32 1
  store ptr %10, ptr %12, align 8
  %13 = load ptr, ptr %3, align 8
  %14 = getelementptr inbounds %struct.H5G_name_t, ptr %13, i32 0, i32 2
  store i32 0, ptr %14, align 8
  ret i32 0
}