; Function Attrs: nounwind uwtable
define noundef i32 @H5G__name_init(ptr nocapture noundef writeonly %0, ptr noundef %1) local_unnamed_addr #2 {
  %3 = tail call ptr @H5RS_create(ptr noundef %1) #10
  store ptr %3, ptr %0, align 8
  %4 = tail call ptr @H5RS_create(ptr noundef %1) #10
  %5 = getelementptr inbounds i8, ptr %0, i64 8
  store ptr %4, ptr %5, align 8
  %6 = getelementptr inbounds i8, ptr %0, i64 16
  store i32 0, ptr %6, align 8
  ret i32 0
}